target datalayout = "e-m:e-p270:32:32-p271:32:32-p272:64:64-i64:64-i128:128-f80:128-n8:16:32:64-S128"
target triple = "x86_64-pc-linux-gnu"

%struct._object = type { %union.anon, ptr }
%union.anon = type { i64 }
%struct._typeobject = type { %struct.PyVarObject, ptr, i64, i64, ptr, i64, ptr, ptr, ptr, ptr, ptr, ptr, ptr, ptr, ptr, ptr, ptr, ptr, ptr, i64, ptr, ptr, ptr, ptr, i64, ptr, ptr, ptr, ptr, ptr, ptr, ptr, ptr, ptr, i64, ptr, ptr, ptr, ptr, ptr, ptr, ptr, ptr, ptr, ptr, ptr, i32, ptr, ptr, i8, i16 }
%struct.PyVarObject = type { %struct._object, i64 }
%struct.anon = type { i32, i32 }
%struct.ElementObject = type { %struct._object, ptr, ptr, ptr, ptr, ptr }
%struct.ElementObjectExtra = type { ptr, i64, i64, ptr, [4 x ptr] }
%struct.PyListObject = type { %struct.PyVarObject, ptr, i64 }

@PyExc_TypeError = external global ptr, align 8
@PyExc_IndexError = external global ptr, align 8
@.str.103 = private unnamed_addr constant [25 x i8] c"child index out of range\00", align 1
@PySlice_Type = external global %struct._typeobject, align 8
@.str.106 = private unnamed_addr constant [33 x i8] c"element indices must be integers\00", align 1

; Function Attrs: alwaysinline nounwind uwtable
define internal void @Py_INCREF(ptr noundef %0) #4 {
  %2 = alloca ptr, align 8
  %3 = alloca i32, align 4
  %4 = alloca i32, align 4
  store ptr %0, ptr %2, align 8, !tbaa !3
  call void @llvm.lifetime.start.p0(i64 4, ptr %3) #8
  %5 = load ptr, ptr %2, align 8, !tbaa !3
  %6 = getelementptr inbounds nuw %struct._object, ptr %5, i32 0, i32 0
  %7 = getelementptr inbounds nuw %struct.anon, ptr %6, i32 0, i32 0
  %8 = load i32, ptr %7, align 8, !tbaa !32
  store i32 %8, ptr %3, align 4, !tbaa !13
  %9 = load i32, ptr %3, align 4, !tbaa !13
  %10 = icmp slt i32 %9, 0
  br i1 %10, label %11, label %12

11:                                               ; preds = %1
  store i32 1, ptr %4, align 4
  br label %18

12:                                               ; preds = %1
  %13 = load i32, ptr %3, align 4, !tbaa !13
  %14 = add i32 %13, 1
  %15 = load ptr, ptr %2, align 8, !tbaa !3
  %16 = getelementptr inbounds nuw %struct._object, ptr %15, i32 0, i32 0
  %17 = getelementptr inbounds nuw %struct.anon, ptr %16, i32 0, i32 0
  store i32 %14, ptr %17, align 8, !tbaa !32
  store i32 0, ptr %4, align 4
  br label %18

18:                                               ; preds = %12, %11
  call void @llvm.lifetime.end.p0(i64 4, ptr %3) #8
  %19 = load i32, ptr %4, align 4
  switch i32 %19, label %21 [
    i32 0, label %20
    i32 1, label %20
  ]

20:                                               ; preds = %18, %18
  ret void

21:                                               ; preds = %18
  unreachable
}

; Function Attrs: inlinehint nounwind uwtable
define internal ptr @_Py_TYPE(ptr noundef %0) #3 {
  %2 = alloca ptr, align 8
  store ptr %0, ptr %2, align 8, !tbaa !3
  %3 = load ptr, ptr %2, align 8, !tbaa !3
  %4 = getelementptr inbounds nuw %struct._object, ptr %3, i32 0, i32 1
  %5 = load ptr, ptr %4, align 8, !tbaa !52
  ret ptr %5
}

; Function Attrs: inlinehint nounwind uwtable
define internal void @PyList_SET_ITEM(ptr noundef %0, i64 noundef %1, ptr noundef %2) #3 {
  %4 = alloca ptr, align 8
  %5 = alloca i64, align 8
  %6 = alloca ptr, align 8
  %7 = alloca ptr, align 8
  store ptr %0, ptr %4, align 8, !tbaa !3
  store i64 %1, ptr %5, align 8, !tbaa !30
  store ptr %2, ptr %6, align 8, !tbaa !3
  call void @llvm.lifetime.start.p0(i64 8, ptr %7) #8
  %8 = load ptr, ptr %4, align 8, !tbaa !3
  store ptr %8, ptr %7, align 8, !tbaa !8
  %9 = load ptr, ptr %6, align 8, !tbaa !3
  %10 = load ptr, ptr %7, align 8, !tbaa !8
  %11 = getelementptr inbounds nuw %struct.PyListObject, ptr %10, i32 0, i32 1
  %12 = load ptr, ptr %11, align 8, !tbaa !112
  %13 = load i64, ptr %5, align 8, !tbaa !30
  %14 = getelementptr ptr, ptr %12, i64 %13
  store ptr %9, ptr %14, align 8, !tbaa !3
  call void @llvm.lifetime.end.p0(i64 8, ptr %7) #8
  ret void
}

; Function Attrs: inlinehint nounwind uwtable
define internal ptr @_Py_NewRef(ptr noundef %0) #3 {
  %2 = alloca ptr, align 8
  store ptr %0, ptr %2, align 8, !tbaa !3
  %3 = load ptr, ptr %2, align 8, !tbaa !3
  call void @Py_INCREF(ptr noundef %3)
  %4 = load ptr, ptr %2, align 8, !tbaa !3
  ret ptr %4
}

; Function Attrs: inlinehint nounwind uwtable
define internal i32 @Py_IS_TYPE(ptr noundef %0, ptr noundef %1) #3 {
  %3 = alloca ptr, align 8
  %4 = alloca ptr, align 8
  store ptr %0, ptr %3, align 8, !tbaa !3
  store ptr %1, ptr %4, align 8, !tbaa !28
  %5 = load ptr, ptr %3, align 8, !tbaa !3
  %6 = call ptr @_Py_TYPE(ptr noundef %5)
  %7 = load ptr, ptr %4, align 8, !tbaa !28
  %8 = icmp eq ptr %6, %7
  %9 = zext i1 %8 to i32
  ret i32 %9
}

; Function Attrs: nounwind uwtable
define internal ptr @element_getitem(ptr noundef %0, i64 noundef %1) #0 {
  %3 = alloca ptr, align 8
  %4 = alloca ptr, align 8
  %5 = alloca i64, align 8
  %6 = alloca ptr, align 8
  %7 = alloca i32, align 4
  store ptr %0, ptr %4, align 8, !tbaa !3
  store i64 %1, ptr %5, align 8, !tbaa !30
  call void @llvm.lifetime.start.p0(i64 8, ptr %6) #8
  %8 = load ptr, ptr %4, align 8, !tbaa !3
  store ptr %8, ptr %6, align 8, !tbaa !8
  %9 = load ptr, ptr %6, align 8, !tbaa !8
  %10 = getelementptr inbounds nuw %struct.ElementObject, ptr %9, i32 0, i32 4
  %11 = load ptr, ptr %10, align 8, !tbaa !42
  %12 = icmp ne ptr %11, null
  br i1 %12, label %13, label %24

13:                                               ; preds = %2
  %14 = load i64, ptr %5, align 8, !tbaa !30
  %15 = icmp slt i64 %14, 0
  br i1 %15, label %24, label %16

16:                                               ; preds = %13
  %17 = load i64, ptr %5, align 8, !tbaa !30
  %18 = load ptr, ptr %6, align 8, !tbaa !8
  %19 = getelementptr inbounds nuw %struct.ElementObject, ptr %18, i32 0, i32 4
  %20 = load ptr, ptr %19, align 8, !tbaa !42
  %21 = getelementptr inbounds nuw %struct.ElementObjectExtra, ptr %20, i32 0, i32 1
  %22 = load i64, ptr %21, align 8, !tbaa !50
  %23 = icmp sge i64 %17, %22
  br i1 %23, label %24, label %26

24:                                               ; preds = %16, %13, %2
  %25 = load ptr, ptr @PyExc_IndexError, align 8, !tbaa !3
  call void @PyErr_SetString(ptr noundef %25, ptr noundef @.str.103)
  store ptr null, ptr %3, align 8
  store i32 1, ptr %7, align 4
  br label %36

26:                                               ; preds = %16
  %27 = load ptr, ptr %6, align 8, !tbaa !8
  %28 = getelementptr inbounds nuw %struct.ElementObject, ptr %27, i32 0, i32 4
  %29 = load ptr, ptr %28, align 8, !tbaa !42
  %30 = getelementptr inbounds nuw %struct.ElementObjectExtra, ptr %29, i32 0, i32 3
  %31 = load ptr, ptr %30, align 8, !tbaa !48
  %32 = load i64, ptr %5, align 8, !tbaa !30
  %33 = getelementptr ptr, ptr %31, i64 %32
  %34 = load ptr, ptr %33, align 8, !tbaa !3
  %35 = call ptr @_Py_NewRef(ptr noundef %34)
  store ptr %35, ptr %3, align 8
  store i32 1, ptr %7, align 4
  br label %36

36:                                               ; preds = %26, %24
  call void @llvm.lifetime.end.p0(i64 8, ptr %6) #8
  %37 = load ptr, ptr %3, align 8
  ret ptr %37
}

; Function Attrs: nounwind uwtable
define internal ptr @element_subscr(ptr noundef %0, ptr noundef %1) #0 {
  %3 = alloca ptr, align 8
  %4 = alloca ptr, align 8
  %5 = alloca ptr, align 8
  %6 = alloca ptr, align 8
  %7 = alloca i64, align 8
  %8 = alloca i32, align 4
  %9 = alloca i64, align 8
  %10 = alloca i64, align 8
  %11 = alloca i64, align 8
  %12 = alloca i64, align 8
  %13 = alloca i64, align 8
  %14 = alloca i64, align 8
  %15 = alloca ptr, align 8
  %16 = alloca ptr, align 8
  store ptr %0, ptr %4, align 8, !tbaa !3
  store ptr %1, ptr %5, align 8, !tbaa !3
  call void @llvm.lifetime.start.p0(i64 8, ptr %6) #8
  %17 = load ptr, ptr %4, align 8, !tbaa !3
  store ptr %17, ptr %6, align 8, !tbaa !8
  %18 = load ptr, ptr %5, align 8, !tbaa !3
  %19 = call i32 @PyIndex_Check(ptr noundef %18)
  %20 = icmp ne i32 %19, 0
  br i1 %20, label %21, label %52

21:                                               ; preds = %2
  call void @llvm.lifetime.start.p0(i64 8, ptr %7) #8
  %22 = load ptr, ptr %5, align 8, !tbaa !3
  %23 = load ptr, ptr @PyExc_IndexError, align 8, !tbaa !3
  %24 = call i64 @PyNumber_AsSsize_t(ptr noundef %22, ptr noundef %23)
  store i64 %24, ptr %7, align 8, !tbaa !30
  %25 = load i64, ptr %7, align 8, !tbaa !30
  %26 = icmp eq i64 %25, -1
  br i1 %26, label %27, label %31

27:                                               ; preds = %21
  %28 = call ptr @PyErr_Occurred()
  %29 = icmp ne ptr %28, null
  br i1 %29, label %30, label %31

30:                                               ; preds = %27
  store ptr null, ptr %3, align 8
  store i32 1, ptr %8, align 4
  br label %51

31:                                               ; preds = %27, %21
  %32 = load i64, ptr %7, align 8, !tbaa !30
  %33 = icmp slt i64 %32, 0
  br i1 %33, label %34, label %47

34:                                               ; preds = %31
  %35 = load ptr, ptr %6, align 8, !tbaa !8
  %36 = getelementptr inbounds nuw %struct.ElementObject, ptr %35, i32 0, i32 4
  %37 = load ptr, ptr %36, align 8, !tbaa !42
  %38 = icmp ne ptr %37, null
  br i1 %38, label %39, label %47

39:                                               ; preds = %34
  %40 = load ptr, ptr %6, align 8, !tbaa !8
  %41 = getelementptr inbounds nuw %struct.ElementObject, ptr %40, i32 0, i32 4
  %42 = load ptr, ptr %41, align 8, !tbaa !42
  %43 = getelementptr inbounds nuw %struct.ElementObjectExtra, ptr %42, i32 0, i32 1
  %44 = load i64, ptr %43, align 8, !tbaa !50
  %45 = load i64, ptr %7, align 8, !tbaa !30
  %46 = add i64 %45, %44
  store i64 %46, ptr %7, align 8, !tbaa !30
  br label %47

47:                                               ; preds = %39, %34, %31
  %48 = load ptr, ptr %4, align 8, !tbaa !3
  %49 = load i64, ptr %7, align 8, !tbaa !30
  %50 = call ptr @element_getitem(ptr noundef %48, i64 noundef %49)
  store ptr %50, ptr %3, align 8
  store i32 1, ptr %8, align 4
  br label %51

51:                                               ; preds = %47, %30
  call void @llvm.lifetime.end.p0(i64 8, ptr %7) #8
  br label %116

52:                                               ; preds = %2
  %53 = load ptr, ptr %5, align 8, !tbaa !3
  %54 = call i32 @Py_IS_TYPE(ptr noundef %53, ptr noundef @PySlice_Type)
  %55 = icmp ne i32 %54, 0
  br i1 %55, label %56, label %114

56:                                               ; preds = %52
  call void @llvm.lifetime.start.p0(i64 8, ptr %9) #8
  call void @llvm.lifetime.start.p0(i64 8, ptr %10) #8
  call void @llvm.lifetime.start.p0(i64 8, ptr %11) #8
  call void @llvm.lifetime.start.p0(i64 8, ptr %12) #8
  call void @llvm.lifetime.start.p0(i64 8, ptr %13) #8
  call void @llvm.lifetime.start.p0(i64 8, ptr %14) #8
  call void @llvm.lifetime.start.p0(i64 8, ptr %15) #8
  %57 = load ptr, ptr %6, align 8, !tbaa !8
  %58 = getelementptr inbounds nuw %struct.ElementObject, ptr %57, i32 0, i32 4
  %59 = load ptr, ptr %58, align 8, !tbaa !42
  %60 = icmp ne ptr %59, null
  br i1 %60, label %63, label %61

61:                                               ; preds = %56
  %62 = call ptr @PyList_New(i64 noundef 0)
  store ptr %62, ptr %3, align 8
  store i32 1, ptr %8, align 4
  br label %113

63:                                               ; preds = %56
  %64 = load ptr, ptr %5, align 8, !tbaa !3
  %65 = call i32 @PySlice_Unpack(ptr noundef %64, ptr noundef %9, ptr noundef %10, ptr noundef %11)
  %66 = icmp slt i32 %65, 0
  br i1 %66, label %67, label %68

67:                                               ; preds = %63
  store ptr null, ptr %3, align 8
  store i32 1, ptr %8, align 4
  br label %113

68:                                               ; preds = %63
  %69 = load ptr, ptr %6, align 8, !tbaa !8
  %70 = getelementptr inbounds nuw %struct.ElementObject, ptr %69, i32 0, i32 4
  %71 = load ptr, ptr %70, align 8, !tbaa !42
  %72 = getelementptr inbounds nuw %struct.ElementObjectExtra, ptr %71, i32 0, i32 1
  %73 = load i64, ptr %72, align 8, !tbaa !50
  %74 = load i64, ptr %11, align 8, !tbaa !30
  %75 = call i64 @PySlice_AdjustIndices(i64 noundef %73, ptr noundef %9, ptr noundef %10, i64 noundef %74)
  store i64 %75, ptr %12, align 8, !tbaa !30
  %76 = load i64, ptr %12, align 8, !tbaa !30
  %77 = icmp sle i64 %76, 0
  br i1 %77, label %78, label %80

78:                                               ; preds = %68
  %79 = call ptr @PyList_New(i64 noundef 0)
  store ptr %79, ptr %3, align 8
  store i32 1, ptr %8, align 4
  br label %113

80:                                               ; preds = %68
  %81 = load i64, ptr %12, align 8, !tbaa !30
  %82 = call ptr @PyList_New(i64 noundef %81)
  store ptr %82, ptr %15, align 8, !tbaa !3
  %83 = load ptr, ptr %15, align 8, !tbaa !3
  %84 = icmp ne ptr %83, null
  br i1 %84, label %86, label %85

85:                                               ; preds = %80
  store ptr null, ptr %3, align 8
  store i32 1, ptr %8, align 4
  br label %113

86:                                               ; preds = %80
  %87 = load i64, ptr %9, align 8, !tbaa !30
  store i64 %87, ptr %14, align 8, !tbaa !30
  store i64 0, ptr %13, align 8, !tbaa !30
  br label %88

88:                                               ; preds = %105, %86
  %89 = load i64, ptr %13, align 8, !tbaa !30
  %90 = load i64, ptr %12, align 8, !tbaa !30
  %91 = icmp slt i64 %89, %90
  br i1 %91, label %92, label %111

92:                                               ; preds = %88
  call void @llvm.lifetime.start.p0(i64 8, ptr %16) #8
  %93 = load ptr, ptr %6, align 8, !tbaa !8
  %94 = getelementptr inbounds nuw %struct.ElementObject, ptr %93, i32 0, i32 4
  %95 = load ptr, ptr %94, align 8, !tbaa !42
  %96 = getelementptr inbounds nuw %struct.ElementObjectExtra, ptr %95, i32 0, i32 3
  %97 = load ptr, ptr %96, align 8, !tbaa !48
  %98 = load i64, ptr %14, align 8, !tbaa !30
  %99 = getelementptr ptr, ptr %97, i64 %98
  %100 = load ptr, ptr %99, align 8, !tbaa !3
  %101 = call ptr @_Py_NewRef(ptr noundef %100)
  store ptr %101, ptr %16, align 8, !tbaa !3
  %102 = load ptr, ptr %15, align 8, !tbaa !3
  %103 = load i64, ptr %13, align 8, !tbaa !30
  %104 = load ptr, ptr %16, align 8, !tbaa !3
  call void @PyList_SET_ITEM(ptr noundef %102, i64 noundef %103, ptr noundef %104)
  call void @llvm.lifetime.end.p0(i64 8, ptr %16) #8
  br label %105

105:                                              ; preds = %92
  %106 = load i64, ptr %11, align 8, !tbaa !30
  %107 = load i64, ptr %14, align 8, !tbaa !30
  %108 = add i64 %107, %106
  store i64 %108, ptr %14, align 8, !tbaa !30
  %109 = load i64, ptr %13, align 8, !tbaa !30
  %110 = add i64 %109, 1
  store i64 %110, ptr %13, align 8, !tbaa !30
  br label %88, !llvm.loop !129

111:                                              ; preds = %88
  %112 = load ptr, ptr %15, align 8, !tbaa !3
  store ptr %112, ptr %3, align 8
  store i32 1, ptr %8, align 4
  br label %113

113:                                              ; preds = %111, %85, %78, %67, %61
  call void @llvm.lifetime.end.p0(i64 8, ptr %15) #8
  call void @llvm.lifetime.end.p0(i64 8, ptr %14) #8
  call void @llvm.lifetime.end.p0(i64 8, ptr %13) #8
  call void @llvm.lifetime.end.p0(i64 8, ptr %12) #8
  call void @llvm.lifetime.end.p0(i64 8, ptr %11) #8
  call void @llvm.lifetime.end.p0(i64 8, ptr %10) #8
  call void @llvm.lifetime.end.p0(i64 8, ptr %9) #8
  br label %116

114:                                              ; preds = %52
  %115 = load ptr, ptr @PyExc_TypeError, align 8, !tbaa !3
  call void @PyErr_SetString(ptr noundef %115, ptr noundef @.str.106)
  store ptr null, ptr %3, align 8
  store i32 1, ptr %8, align 4
  br label %116

116:                                              ; preds = %114, %113, %51
  call void @llvm.lifetime.end.p0(i64 8, ptr %6) #8
  %117 = load ptr, ptr %3, align 8
  ret ptr %117
}