; Function Attrs: nounwind uwtable
define internal ptr @element_subscr(ptr noundef readonly captures(none) %0, ptr noundef %1) #0 {
  %3 = alloca i64, align 8
  %4 = alloca i64, align 8
  %5 = alloca i64, align 8
  %6 = tail call i32 @PyIndex_Check(ptr noundef %1) #12
  %.not = icmp eq i32 %6, 0
  br i1 %.not, label %38, label %7

7:                                                ; preds = %2
  %8 = load ptr, ptr @PyExc_IndexError, align 8, !tbaa !20
  %9 = tail call i64 @PyNumber_AsSsize_t(ptr noundef %1, ptr noundef %8) #12
  %10 = icmp eq i64 %9, -1
  br i1 %10, label %11, label %13

11:                                               ; preds = %7
  %12 = tail call ptr @PyErr_Occurred() #12
  %.not38 = icmp eq ptr %12, null
  br i1 %.not38, label %.thread, label %element_getitem.exit

13:                                               ; preds = %7
  %14 = icmp slt i64 %9, 0
  br i1 %14, label %.thread, label %._crit_edge

._crit_edge:                                      ; preds = %13
  %.phi.trans.insert = getelementptr inbounds nuw i8, ptr %0, i64 40
  %.pre = load ptr, ptr %.phi.trans.insert, align 8, !tbaa !37
  br label %21

.thread:                                          ; preds = %11, %13
  %15 = getelementptr inbounds nuw i8, ptr %0, i64 40
  %16 = load ptr, ptr %15, align 8, !tbaa !37
  %.not39 = icmp eq ptr %16, null
  br i1 %.not39, label %.thread41, label %17

17:                                               ; preds = %.thread
  %18 = getelementptr inbounds nuw i8, ptr %16, i64 8
  %19 = load i64, ptr %18, align 8, !tbaa !42
  %20 = add i64 %19, %9
  br label %21

21:                                               ; preds = %._crit_edge, %17
  %22 = phi ptr [ %16, %17 ], [ %.pre, %._crit_edge ]
  %.027 = phi i64 [ %20, %17 ], [ %9, %._crit_edge ]
  %23 = icmp eq ptr %22, null
  %24 = icmp slt i64 %.027, 0
  %or.cond.i = or i1 %24, %23
  br i1 %or.cond.i, label %.thread41, label %25

25:                                               ; preds = %21
  %26 = getelementptr inbounds nuw i8, ptr %22, i64 8
  %27 = load i64, ptr %26, align 8, !tbaa !42
  %.not.i = icmp slt i64 %.027, %27
  br i1 %.not.i, label %29, label %.thread41

.thread41:                                        ; preds = %.thread, %25, %21
  %28 = load ptr, ptr @PyExc_IndexError, align 8, !tbaa !20
  tail call void @PyErr_SetString(ptr noundef %28, ptr noundef nonnull @.str.103) #12
  br label %element_getitem.exit

29:                                               ; preds = %25
  %30 = getelementptr inbounds nuw i8, ptr %22, i64 24
  %31 = load ptr, ptr %30, align 8, !tbaa !39
  %32 = getelementptr ptr, ptr %31, i64 %.027
  %33 = load ptr, ptr %32, align 8, !tbaa !20
  %34 = load i32, ptr %33, align 8, !tbaa !21
  %35 = icmp slt i32 %34, 0
  br i1 %35, label %element_getitem.exit, label %36

36:                                               ; preds = %29
  %37 = add nuw i32 %34, 1
  store i32 %37, ptr %33, align 8, !tbaa !21
  br label %element_getitem.exit

38:                                               ; preds = %2
  %39 = getelementptr i8, ptr %1, i64 8
  %.val = load ptr, ptr %39, align 8, !tbaa !25
  %.not44 = icmp eq ptr %.val, @PySlice_Type
  br i1 %.not44, label %40, label %75

40:                                               ; preds = %38
  call void @llvm.lifetime.start.p0(i64 8, ptr nonnull %3) #12
  call void @llvm.lifetime.start.p0(i64 8, ptr nonnull %4) #12
  call void @llvm.lifetime.start.p0(i64 8, ptr nonnull %5) #12
  %41 = getelementptr inbounds nuw i8, ptr %0, i64 40
  %42 = load ptr, ptr %41, align 8, !tbaa !37
  %.not36 = icmp eq ptr %42, null
  br i1 %.not36, label %43, label %45

43:                                               ; preds = %40
  %44 = tail call ptr @PyList_New(i64 noundef 0) #12
  br label %.loopexit

45:                                               ; preds = %40
  %46 = call i32 @PySlice_Unpack(ptr noundef nonnull %1, ptr noundef nonnull %3, ptr noundef nonnull %4, ptr noundef nonnull %5) #12
  %47 = icmp slt i32 %46, 0
  br i1 %47, label %.loopexit, label %48

48:                                               ; preds = %45
  %49 = load ptr, ptr %41, align 8, !tbaa !37
  %50 = getelementptr inbounds nuw i8, ptr %49, i64 8
  %51 = load i64, ptr %50, align 8, !tbaa !42
  %52 = load i64, ptr %5, align 8, !tbaa !122
  %53 = call i64 @PySlice_AdjustIndices(i64 noundef %51, ptr noundef nonnull %3, ptr noundef nonnull %4, i64 noundef %52) #12
  %54 = icmp slt i64 %53, 1
  br i1 %54, label %55, label %57

55:                                               ; preds = %48
  %56 = call ptr @PyList_New(i64 noundef 0) #12
  br label %.loopexit

57:                                               ; preds = %48
  %58 = call ptr @PyList_New(i64 noundef %53) #12
  %.not37 = icmp eq ptr %58, null
  br i1 %.not37, label %.loopexit, label %.lr.ph

.lr.ph:                                           ; preds = %57
  %59 = load i64, ptr %3, align 8, !tbaa !122
  %60 = getelementptr i8, ptr %58, i64 24
  br label %61

61:                                               ; preds = %.lr.ph, %_Py_NewRef.exit
  %.02846 = phi i64 [ %59, %.lr.ph ], [ %73, %_Py_NewRef.exit ]
  %.02945 = phi i64 [ 0, %.lr.ph ], [ %74, %_Py_NewRef.exit ]
  %62 = load ptr, ptr %41, align 8, !tbaa !37
  %63 = getelementptr inbounds nuw i8, ptr %62, i64 24
  %64 = load ptr, ptr %63, align 8, !tbaa !39
  %65 = getelementptr ptr, ptr %64, i64 %.02846
  %66 = load ptr, ptr %65, align 8, !tbaa !20
  %67 = load i32, ptr %66, align 8, !tbaa !21
  %68 = icmp slt i32 %67, 0
  br i1 %68, label %_Py_NewRef.exit, label %69

69:                                               ; preds = %61
  %70 = add nuw i32 %67, 1
  store i32 %70, ptr %66, align 8, !tbaa !21
  br label %_Py_NewRef.exit

_Py_NewRef.exit:                                  ; preds = %61, %69
  %.val40 = load ptr, ptr %60, align 8, !tbaa !107
  %71 = getelementptr ptr, ptr %.val40, i64 %.02945
  store ptr %66, ptr %71, align 8, !tbaa !20
  %72 = load i64, ptr %5, align 8, !tbaa !122
  %73 = add i64 %72, %.02846
  %74 = add nuw nsw i64 %.02945, 1
  %exitcond.not = icmp eq i64 %74, %53
  br i1 %exitcond.not, label %.loopexit, label %61, !llvm.loop !123

.loopexit:                                        ; preds = %_Py_NewRef.exit, %57, %45, %55, %43
  %.2 = phi ptr [ %56, %55 ], [ %44, %43 ], [ null, %45 ], [ null, %57 ], [ %58, %_Py_NewRef.exit ]
  call void @llvm.lifetime.end.p0(i64 8, ptr nonnull %5) #12
  call void @llvm.lifetime.end.p0(i64 8, ptr nonnull %4) #12
  call void @llvm.lifetime.end.p0(i64 8, ptr nonnull %3) #12
  br label %element_getitem.exit

75:                                               ; preds = %38
  %76 = load ptr, ptr @PyExc_TypeError, align 8, !tbaa !20
  tail call void @PyErr_SetString(ptr noundef %76, ptr noundef nonnull @.str.106) #12
  br label %element_getitem.exit

element_getitem.exit:                             ; preds = %36, %29, %.thread41, %11, %75, %.loopexit
  %.1 = phi ptr [ %.2, %.loopexit ], [ null, %75 ], [ null, %11 ], [ null, %.thread41 ], [ %33, %29 ], [ %33, %36 ]
  ret ptr %.1
}